target datalayout = "e-m:e-p270:32:32-p271:32:32-p272:64:64-i64:64-i128:128-f80:128-n8:16:32:64-S128"
target triple = "x86_64-pc-linux-gnu"

; Function Attrs: nounwind uwtable
define void @stbi__YCbCr_to_RGB_row(ptr noundef %0, ptr noundef %1, ptr noundef %2, ptr noundef %3, i32 noundef %4, i32 noundef %5) #0 {
  %7 = alloca ptr, align 8
  %8 = alloca ptr, align 8
  %9 = alloca ptr, align 8
  %10 = alloca ptr, align 8
  %11 = alloca i32, align 4
  %12 = alloca i32, align 4
  %13 = alloca i32, align 4
  %14 = alloca i32, align 4
  %15 = alloca i32, align 4
  %16 = alloca i32, align 4
  %17 = alloca i32, align 4
  %18 = alloca i32, align 4
  %19 = alloca i32, align 4
  store ptr %0, ptr %7, align 8, !tbaa !7
  store ptr %1, ptr %8, align 8, !tbaa !7
  store ptr %2, ptr %9, align 8, !tbaa !7
  store ptr %3, ptr %10, align 8, !tbaa !7
  store i32 %4, ptr %11, align 4, !tbaa !9
  store i32 %5, ptr %12, align 4, !tbaa !9
  call void @llvm.lifetime.start.p0(i64 4, ptr %13) #13
  store i32 0, ptr %13, align 4, !tbaa !9
  br label %20

20:                                               ; preds = %114, %6
  %21 = load i32, ptr %13, align 4, !tbaa !9
  %22 = load i32, ptr %11, align 4, !tbaa !9
  %23 = icmp slt i32 %21, %22
  br i1 %23, label %24, label %117

24:                                               ; preds = %20
  call void @llvm.lifetime.start.p0(i64 4, ptr %14) #13
  %25 = load ptr, ptr %8, align 8, !tbaa !7
  %26 = load i32, ptr %13, align 4, !tbaa !9
  %27 = sext i32 %26 to i64
  %28 = getelementptr inbounds i8, ptr %25, i64 %27
  %29 = load i8, ptr %28, align 1, !tbaa !23
  %30 = zext i8 %29 to i32
  %31 = shl i32 %30, 20
  %32 = add nsw i32 %31, 524288
  store i32 %32, ptr %14, align 4, !tbaa !9
  call void @llvm.lifetime.start.p0(i64 4, ptr %15) #13
  call void @llvm.lifetime.start.p0(i64 4, ptr %16) #13
  call void @llvm.lifetime.start.p0(i64 4, ptr %17) #13
  call void @llvm.lifetime.start.p0(i64 4, ptr %18) #13
  %33 = load ptr, ptr %10, align 8, !tbaa !7
  %34 = load i32, ptr %13, align 4, !tbaa !9
  %35 = sext i32 %34 to i64
  %36 = getelementptr inbounds i8, ptr %33, i64 %35
  %37 = load i8, ptr %36, align 1, !tbaa !23
  %38 = zext i8 %37 to i32
  %39 = sub nsw i32 %38, 128
  store i32 %39, ptr %18, align 4, !tbaa !9
  call void @llvm.lifetime.start.p0(i64 4, ptr %19) #13
  %40 = load ptr, ptr %9, align 8, !tbaa !7
  %41 = load i32, ptr %13, align 4, !tbaa !9
  %42 = sext i32 %41 to i64
  %43 = getelementptr inbounds i8, ptr %40, i64 %42
  %44 = load i8, ptr %43, align 1, !tbaa !23
  %45 = zext i8 %44 to i32
  %46 = sub nsw i32 %45, 128
  store i32 %46, ptr %19, align 4, !tbaa !9
  %47 = load i32, ptr %14, align 4, !tbaa !9
  %48 = load i32, ptr %18, align 4, !tbaa !9
  %49 = mul nsw i32 %48, 1470208
  %50 = add nsw i32 %47, %49
  store i32 %50, ptr %15, align 4, !tbaa !9
  %51 = load i32, ptr %14, align 4, !tbaa !9
  %52 = load i32, ptr %18, align 4, !tbaa !9
  %53 = mul nsw i32 %52, -748800
  %54 = add nsw i32 %51, %53
  %55 = load i32, ptr %19, align 4, !tbaa !9
  %56 = mul nsw i32 %55, -360960
  %57 = and i32 %56, -65536
  %58 = add i32 %54, %57
  store i32 %58, ptr %16, align 4, !tbaa !9
  %59 = load i32, ptr %14, align 4, !tbaa !9
  %60 = load i32, ptr %19, align 4, !tbaa !9
  %61 = mul nsw i32 %60, 1858048
  %62 = add nsw i32 %59, %61
  store i32 %62, ptr %17, align 4, !tbaa !9
  %63 = load i32, ptr %15, align 4, !tbaa !9
  %64 = ashr i32 %63, 20
  store i32 %64, ptr %15, align 4, !tbaa !9
  %65 = load i32, ptr %16, align 4, !tbaa !9
  %66 = ashr i32 %65, 20
  store i32 %66, ptr %16, align 4, !tbaa !9
  %67 = load i32, ptr %17, align 4, !tbaa !9
  %68 = ashr i32 %67, 20
  store i32 %68, ptr %17, align 4, !tbaa !9
  %69 = load i32, ptr %15, align 4, !tbaa !9
  %70 = icmp ugt i32 %69, 255
  br i1 %70, label %71, label %77

71:                                               ; preds = %24
  %72 = load i32, ptr %15, align 4, !tbaa !9
  %73 = icmp slt i32 %72, 0
  br i1 %73, label %74, label %75

74:                                               ; preds = %71
  store i32 0, ptr %15, align 4, !tbaa !9
  br label %76

75:                                               ; preds = %71
  store i32 255, ptr %15, align 4, !tbaa !9
  br label %76

76:                                               ; preds = %75, %74
  br label %77

77:                                               ; preds = %76, %24
  %78 = load i32, ptr %16, align 4, !tbaa !9
  %79 = icmp ugt i32 %78, 255
  br i1 %79, label %80, label %86

80:                                               ; preds = %77
  %81 = load i32, ptr %16, align 4, !tbaa !9
  %82 = icmp slt i32 %81, 0
  br i1 %82, label %83, label %84

83:                                               ; preds = %80
  store i32 0, ptr %16, align 4, !tbaa !9
  br label %85

84:                                               ; preds = %80
  store i32 255, ptr %16, align 4, !tbaa !9
  br label %85

85:                                               ; preds = %84, %83
  br label %86

86:                                               ; preds = %85, %77
  %87 = load i32, ptr %17, align 4, !tbaa !9
  %88 = icmp ugt i32 %87, 255
  br i1 %88, label %89, label %95

89:                                               ; preds = %86
  %90 = load i32, ptr %17, align 4, !tbaa !9
  %91 = icmp slt i32 %90, 0
  br i1 %91, label %92, label %93

92:                                               ; preds = %89
  store i32 0, ptr %17, align 4, !tbaa !9
  br label %94

93:                                               ; preds = %89
  store i32 255, ptr %17, align 4, !tbaa !9
  br label %94

94:                                               ; preds = %93, %92
  br label %95

95:                                               ; preds = %94, %86
  %96 = load i32, ptr %15, align 4, !tbaa !9
  %97 = trunc i32 %96 to i8
  %98 = load ptr, ptr %7, align 8, !tbaa !7
  %99 = getelementptr inbounds i8, ptr %98, i64 0
  store i8 %97, ptr %99, align 1, !tbaa !23
  %100 = load i32, ptr %16, align 4, !tbaa !9
  %101 = trunc i32 %100 to i8
  %102 = load ptr, ptr %7, align 8, !tbaa !7
  %103 = getelementptr inbounds i8, ptr %102, i64 1
  store i8 %101, ptr %103, align 1, !tbaa !23
  %104 = load i32, ptr %17, align 4, !tbaa !9
  %105 = trunc i32 %104 to i8
  %106 = load ptr, ptr %7, align 8, !tbaa !7
  %107 = getelementptr inbounds i8, ptr %106, i64 2
  store i8 %105, ptr %107, align 1, !tbaa !23
  %108 = load ptr, ptr %7, align 8, !tbaa !7
  %109 = getelementptr inbounds i8, ptr %108, i64 3
  store i8 -1, ptr %109, align 1, !tbaa !23
  %110 = load i32, ptr %12, align 4, !tbaa !9
  %111 = load ptr, ptr %7, align 8, !tbaa !7
  %112 = sext i32 %110 to i64
  %113 = getelementptr inbounds i8, ptr %111, i64 %112
  store ptr %113, ptr %7, align 8, !tbaa !7
  call void @llvm.lifetime.end.p0(i64 4, ptr %19) #13
  call void @llvm.lifetime.end.p0(i64 4, ptr %18) #13
  call void @llvm.lifetime.end.p0(i64 4, ptr %17) #13
  call void @llvm.lifetime.end.p0(i64 4, ptr %16) #13
  call void @llvm.lifetime.end.p0(i64 4, ptr %15) #13
  call void @llvm.lifetime.end.p0(i64 4, ptr %14) #13
  br label %114

114:                                              ; preds = %95
  %115 = load i32, ptr %13, align 4, !tbaa !9
  %116 = add nsw i32 %115, 1
  store i32 %116, ptr %13, align 4, !tbaa !9
  br label %20, !llvm.loop !253

117:                                              ; preds = %20
  call void @llvm.lifetime.end.p0(i64 4, ptr %13) #13
  ret void
}