; Function Attrs: nofree norecurse nosync nounwind memory(argmem: readwrite) uwtable
define void @stbi__YCbCr_to_RGB_row(ptr noundef writeonly captures(none) %0, ptr noundef readonly captures(none) %1, ptr noundef readonly captures(none) %2, ptr noundef readonly captures(none) %3, i32 noundef %4, i32 noundef %5) local_unnamed_addr #18 {
  %7 = icmp sgt i32 %4, 0
  br i1 %7, label %.lr.ph, label %._crit_edge

.lr.ph:                                           ; preds = %6
  %8 = sext i32 %5 to i64
  %wide.trip.count = zext nneg i32 %4 to i64
  br label %9

9:                                                ; preds = %.lr.ph, %9
  %indvars.iv = phi i64 [ 0, %.lr.ph ], [ %indvars.iv.next, %9 ]
  %.045 = phi ptr [ %0, %.lr.ph ], [ %47, %9 ]
  %10 = getelementptr inbounds nuw i8, ptr %1, i64 %indvars.iv
  %11 = load i8, ptr %10, align 1, !tbaa !21
  %12 = zext i8 %11 to i32
  %13 = shl nuw nsw i32 %12, 20
  %14 = or disjoint i32 %13, 524288
  %15 = getelementptr inbounds nuw i8, ptr %3, i64 %indvars.iv
  %16 = load i8, ptr %15, align 1, !tbaa !21
  %17 = zext i8 %16 to i32
  %18 = add nsw i32 %17, -128
  %19 = getelementptr inbounds nuw i8, ptr %2, i64 %indvars.iv
  %20 = load i8, ptr %19, align 1, !tbaa !21
  %21 = zext i8 %20 to i32
  %22 = add nsw i32 %21, -128
  %23 = mul nsw i32 %18, 1470208
  %24 = add nsw i32 %23, %14
  %25 = mul nsw i32 %18, -748800
  %26 = add nsw i32 %25, %14
  %27 = mul nsw i32 %22, -360960
  %28 = and i32 %27, -65536
  %29 = add i32 %26, %28
  %30 = mul nsw i32 %22, 1858048
  %31 = add nsw i32 %30, %14
  %32 = ashr i32 %24, 20
  %33 = ashr i32 %29, 20
  %34 = ashr i32 %31, 20
  %35 = tail call i32 @llvm.smax.i32(i32 %32, i32 0)
  %36 = tail call i32 @llvm.umin.i32(i32 %35, i32 255)
  %37 = tail call i32 @llvm.smax.i32(i32 %33, i32 0)
  %38 = tail call i32 @llvm.umin.i32(i32 %37, i32 255)
  %39 = tail call i32 @llvm.smax.i32(i32 %34, i32 0)
  %40 = tail call i32 @llvm.umin.i32(i32 %39, i32 255)
  %41 = trunc nuw i32 %36 to i8
  store i8 %41, ptr %.045, align 1, !tbaa !21
  %42 = trunc nuw i32 %38 to i8
  %43 = getelementptr inbounds nuw i8, ptr %.045, i64 1
  store i8 %42, ptr %43, align 1, !tbaa !21
  %44 = trunc nuw i32 %40 to i8
  %45 = getelementptr inbounds nuw i8, ptr %.045, i64 2
  store i8 %44, ptr %45, align 1, !tbaa !21
  %46 = getelementptr inbounds nuw i8, ptr %.045, i64 3
  store i8 -1, ptr %46, align 1, !tbaa !21
  %47 = getelementptr inbounds i8, ptr %.045, i64 %8
  %indvars.iv.next = add nuw nsw i64 %indvars.iv, 1
  %exitcond.not = icmp eq i64 %indvars.iv.next, %wide.trip.count
  br i1 %exitcond.not, label %._crit_edge, label %9, !llvm.loop !245

._crit_edge:                                      ; preds = %9, %6
  ret void
}